target datalayout = "e-m:e-p270:32:32-p271:32:32-p272:64:64-i64:64-i128:128-f80:128-n8:16:32:64-S128"
target triple = "x86_64-pc-linux-gnu"

@.str = private unnamed_addr constant [15 x i8] c"sorter%02d.pla\00", align 1
@.str.1 = private unnamed_addr constant [3 x i8] c"wb\00", align 1
@.str.2 = private unnamed_addr constant [41 x i8] c"# This file was generated by ABC on %s.\0A\00", align 1
@.str.3 = private unnamed_addr constant [7 x i8] c".i %d\0A\00", align 1
@.str.4 = private unnamed_addr constant [7 x i8] c".o %d\0A\00", align 1
@.str.5 = private unnamed_addr constant [7 x i8] c".p %d\0A\00", align 1
@.str.6 = private unnamed_addr constant [3 x i8] c"%d\00", align 1
@.str.7 = private unnamed_addr constant [2 x i8] c" \00", align 1
@.str.8 = private unnamed_addr constant [2 x i8] c"1\00", align 1
@.str.9 = private unnamed_addr constant [2 x i8] c"0\00", align 1
@.str.10 = private unnamed_addr constant [2 x i8] c"\0A\00", align 1
@.str.11 = private unnamed_addr constant [6 x i8] c".end\0A\00", align 1

; Function Attrs: nounwind uwtable
define void @Pla_GenSorter(i32 noundef %0) #0 {
  %2 = alloca i32, align 4
  %3 = alloca i32, align 4
  %4 = alloca i32, align 4
  %5 = alloca i32, align 4
  %6 = alloca i32, align 4
  %7 = alloca [20 x i8], align 16
  %8 = alloca ptr, align 8
  store i32 %0, ptr %2, align 4, !tbaa !3
  call void @llvm.lifetime.start.p0(i64 4, ptr %3) #11
  call void @llvm.lifetime.start.p0(i64 4, ptr %4) #11
  call void @llvm.lifetime.start.p0(i64 4, ptr %5) #11
  call void @llvm.lifetime.start.p0(i64 4, ptr %6) #11
  %9 = load i32, ptr %2, align 4, !tbaa !3
  %10 = shl i32 1, %9
  store i32 %10, ptr %6, align 4, !tbaa !3
  call void @llvm.lifetime.start.p0(i64 20, ptr %7) #11
  call void @llvm.lifetime.start.p0(i64 8, ptr %8) #11
  %11 = getelementptr inbounds [20 x i8], ptr %7, i64 0, i64 0
  %12 = load i32, ptr %2, align 4, !tbaa !3
  %13 = call i32 (ptr, ptr, ...) @sprintf(ptr noundef %11, ptr noundef @.str, i32 noundef %12) #11
  %14 = getelementptr inbounds [20 x i8], ptr %7, i64 0, i64 0
  %15 = call noalias ptr @fopen(ptr noundef %14, ptr noundef @.str.1)
  store ptr %15, ptr %8, align 8, !tbaa !7
  %16 = load ptr, ptr %8, align 8, !tbaa !7
  %17 = call ptr (...) @Extra_TimeStamp()
  %18 = call i32 (ptr, ptr, ...) @fprintf(ptr noundef %16, ptr noundef @.str.2, ptr noundef %17) #11
  %19 = load ptr, ptr %8, align 8, !tbaa !7
  %20 = load i32, ptr %2, align 4, !tbaa !3
  %21 = call i32 (ptr, ptr, ...) @fprintf(ptr noundef %19, ptr noundef @.str.3, i32 noundef %20) #11
  %22 = load ptr, ptr %8, align 8, !tbaa !7
  %23 = load i32, ptr %2, align 4, !tbaa !3
  %24 = call i32 (ptr, ptr, ...) @fprintf(ptr noundef %22, ptr noundef @.str.4, i32 noundef %23) #11
  %25 = load ptr, ptr %8, align 8, !tbaa !7
  %26 = load i32, ptr %6, align 4, !tbaa !3
  %27 = sub nsw i32 %26, 1
  %28 = call i32 (ptr, ptr, ...) @fprintf(ptr noundef %25, ptr noundef @.str.5, i32 noundef %27) #11
  store i32 1, ptr %3, align 4, !tbaa !3
  br label %29

29:                                               ; preds = %82, %1
  %30 = load i32, ptr %3, align 4, !tbaa !3
  %31 = load i32, ptr %6, align 4, !tbaa !3
  %32 = icmp slt i32 %30, %31
  br i1 %32, label %33, label %85

33:                                               ; preds = %29
  store i32 0, ptr %5, align 4, !tbaa !3
  %34 = load i32, ptr %2, align 4, !tbaa !3
  %35 = sub nsw i32 %34, 1
  store i32 %35, ptr %4, align 4, !tbaa !3
  br label %36

36:                                               ; preds = %52, %33
  %37 = load i32, ptr %4, align 4, !tbaa !3
  %38 = icmp sge i32 %37, 0
  br i1 %38, label %39, label %55

39:                                               ; preds = %36
  %40 = load i32, ptr %3, align 4, !tbaa !3
  %41 = load i32, ptr %4, align 4, !tbaa !3
  %42 = ashr i32 %40, %41
  %43 = and i32 %42, 1
  %44 = load i32, ptr %5, align 4, !tbaa !3
  %45 = add nsw i32 %44, %43
  store i32 %45, ptr %5, align 4, !tbaa !3
  %46 = load ptr, ptr %8, align 8, !tbaa !7
  %47 = load i32, ptr %3, align 4, !tbaa !3
  %48 = load i32, ptr %4, align 4, !tbaa !3
  %49 = ashr i32 %47, %48
  %50 = and i32 %49, 1
  %51 = call i32 (ptr, ptr, ...) @fprintf(ptr noundef %46, ptr noundef @.str.6, i32 noundef %50) #11
  br label %52

52:                                               ; preds = %39
  %53 = load i32, ptr %4, align 4, !tbaa !3
  %54 = add nsw i32 %53, -1
  store i32 %54, ptr %4, align 4, !tbaa !3
  br label %36, !llvm.loop !10

55:                                               ; preds = %36
  %56 = load ptr, ptr %8, align 8, !tbaa !7
  %57 = call i32 (ptr, ptr, ...) @fprintf(ptr noundef %56, ptr noundef @.str.7) #11
  store i32 0, ptr %4, align 4, !tbaa !3
  br label %58

58:                                               ; preds = %65, %55
  %59 = load i32, ptr %4, align 4, !tbaa !3
  %60 = load i32, ptr %5, align 4, !tbaa !3
  %61 = icmp slt i32 %59, %60
  br i1 %61, label %62, label %68

62:                                               ; preds = %58
  %63 = load ptr, ptr %8, align 8, !tbaa !7
  %64 = call i32 (ptr, ptr, ...) @fprintf(ptr noundef %63, ptr noundef @.str.8) #11
  br label %65

65:                                               ; preds = %62
  %66 = load i32, ptr %4, align 4, !tbaa !3
  %67 = add nsw i32 %66, 1
  store i32 %67, ptr %4, align 4, !tbaa !3
  br label %58, !llvm.loop !12

68:                                               ; preds = %58
  br label %69

69:                                               ; preds = %76, %68
  %70 = load i32, ptr %4, align 4, !tbaa !3
  %71 = load i32, ptr %2, align 4, !tbaa !3
  %72 = icmp slt i32 %70, %71
  br i1 %72, label %73, label %79

73:                                               ; preds = %69
  %74 = load ptr, ptr %8, align 8, !tbaa !7
  %75 = call i32 (ptr, ptr, ...) @fprintf(ptr noundef %74, ptr noundef @.str.9) #11
  br label %76

76:                                               ; preds = %73
  %77 = load i32, ptr %4, align 4, !tbaa !3
  %78 = add nsw i32 %77, 1
  store i32 %78, ptr %4, align 4, !tbaa !3
  br label %69, !llvm.loop !13

79:                                               ; preds = %69
  %80 = load ptr, ptr %8, align 8, !tbaa !7
  %81 = call i32 (ptr, ptr, ...) @fprintf(ptr noundef %80, ptr noundef @.str.10) #11
  br label %82

82:                                               ; preds = %79
  %83 = load i32, ptr %3, align 4, !tbaa !3
  %84 = add nsw i32 %83, 1
  store i32 %84, ptr %3, align 4, !tbaa !3
  br label %29, !llvm.loop !14

85:                                               ; preds = %29
  %86 = load ptr, ptr %8, align 8, !tbaa !7
  %87 = call i32 (ptr, ptr, ...) @fprintf(ptr noundef %86, ptr noundef @.str.11) #11
  %88 = load ptr, ptr %8, align 8, !tbaa !7
  %89 = call i32 @fclose(ptr noundef %88)
  call void @llvm.lifetime.end.p0(i64 8, ptr %8) #11
  call void @llvm.lifetime.end.p0(i64 20, ptr %7) #11
  call void @llvm.lifetime.end.p0(i64 4, ptr %6) #11
  call void @llvm.lifetime.end.p0(i64 4, ptr %5) #11
  call void @llvm.lifetime.end.p0(i64 4, ptr %4) #11
  call void @llvm.lifetime.end.p0(i64 4, ptr %3) #11
  ret void
}