; Function Attrs: nounwind uwtable
define void @Pla_GenSorter(i32 noundef %0) local_unnamed_addr #0 {
  %2 = alloca [20 x i8], align 16
  %3 = shl nuw i32 1, %0
  call void @llvm.lifetime.start.p0(i64 20, ptr nonnull %2) #18
  %4 = call i32 (ptr, ptr, ...) @sprintf(ptr noundef nonnull dereferenceable(1) %2, ptr noundef nonnull dereferenceable(1) @.str, i32 noundef %0) #18
  %5 = call noalias ptr @fopen(ptr noundef nonnull %2, ptr noundef nonnull @.str.1)
  %6 = tail call ptr (...) @Extra_TimeStamp() #18
  %7 = tail call i32 (ptr, ptr, ...) @fprintf(ptr noundef %5, ptr noundef nonnull @.str.2, ptr noundef %6) #18
  %8 = tail call i32 (ptr, ptr, ...) @fprintf(ptr noundef %5, ptr noundef nonnull @.str.3, i32 noundef %0) #18
  %9 = tail call i32 (ptr, ptr, ...) @fprintf(ptr noundef %5, ptr noundef nonnull @.str.4, i32 noundef %0) #18
  %10 = add nsw i32 %3, -1
  %11 = tail call i32 (ptr, ptr, ...) @fprintf(ptr noundef %5, ptr noundef nonnull @.str.5, i32 noundef %10) #18
  %12 = icmp sgt i32 %3, 1
  br i1 %12, label %.preheader37.lr.ph, label %._crit_edge48

.preheader37.lr.ph:                               ; preds = %1
  %13 = icmp sgt i32 %0, 0
  br i1 %13, label %.preheader37.us, label %.preheader37

.preheader37.us:                                  ; preds = %.preheader37.lr.ph, %._crit_edge46.us
  %.047.us = phi i32 [ %14, %._crit_edge46.us ], [ 1, %.preheader37.lr.ph ]
  br label %18

._crit_edge46.us:                                 ; preds = %.lr.ph45.us, %.preheader.us
  %fputc34.us = tail call i32 @fputc(i32 10, ptr %5)
  %14 = add nuw nsw i32 %.047.us, 1
  %exitcond60.not = icmp eq i32 %14, %3
  br i1 %exitcond60.not, label %._crit_edge48, label %.preheader37.us, !llvm.loop !3

.lr.ph45.us:                                      ; preds = %.preheader.us, %.lr.ph45.us
  %.244.us = phi i32 [ %15, %.lr.ph45.us ], [ %21, %.preheader.us ]
  %fputc35.us = tail call i32 @fputc(i32 48, ptr %5)
  %15 = add nuw nsw i32 %.244.us, 1
  %16 = icmp slt i32 %15, %0
  br i1 %16, label %.lr.ph45.us, label %._crit_edge46.us, !llvm.loop !5

.lr.ph42.us:                                      ; preds = %._crit_edge.us, %.lr.ph42.us
  %.140.us = phi i32 [ %17, %.lr.ph42.us ], [ 0, %._crit_edge.us ]
  %fputc36.us = tail call i32 @fputc(i32 49, ptr %5)
  %17 = add nuw i32 %.140.us, 1
  %exitcond59.not = icmp eq i32 %17, %21
  br i1 %exitcond59.not, label %.preheader.us, label %.lr.ph42.us, !llvm.loop !6

18:                                               ; preds = %.preheader37.us, %18
  %.032.in39.us = phi i32 [ %0, %.preheader37.us ], [ %.032.us, %18 ]
  %.03338.us = phi i32 [ 0, %.preheader37.us ], [ %21, %18 ]
  %.032.us = add nsw i32 %.032.in39.us, -1
  %19 = lshr i32 %.047.us, %.032.us
  %20 = and i32 %19, 1
  %21 = add i32 %20, %.03338.us
  %22 = tail call i32 (ptr, ptr, ...) @fprintf(ptr noundef %5, ptr noundef nonnull @.str.6, i32 noundef %20) #18
  %23 = icmp sgt i32 %.032.in39.us, 1
  br i1 %23, label %18, label %._crit_edge.us, !llvm.loop !7

.preheader.us:                                    ; preds = %.lr.ph42.us, %._crit_edge.us
  %24 = icmp slt i32 %21, %0
  br i1 %24, label %.lr.ph45.us, label %._crit_edge46.us

._crit_edge.us:                                   ; preds = %18
  %fputc.us = tail call i32 @fputc(i32 32, ptr %5)
  %.not = icmp eq i32 %21, 0
  br i1 %.not, label %.preheader.us, label %.lr.ph42.us

.preheader37:                                     ; preds = %.preheader37.lr.ph, %.preheader37
  %.047 = phi i32 [ %25, %.preheader37 ], [ 1, %.preheader37.lr.ph ]
  %fputc = tail call i32 @fputc(i32 32, ptr %5)
  %fputc34 = tail call i32 @fputc(i32 10, ptr %5)
  %25 = add nuw nsw i32 %.047, 1
  %exitcond.not = icmp eq i32 %25, %3
  br i1 %exitcond.not, label %._crit_edge48, label %.preheader37, !llvm.loop !3

._crit_edge48:                                    ; preds = %.preheader37, %._crit_edge46.us, %1
  %26 = tail call i64 @fwrite(ptr nonnull @.str.11, i64 5, i64 1, ptr %5)
  %27 = tail call i32 @fclose(ptr noundef %5)
  call void @llvm.lifetime.end.p0(i64 20, ptr nonnull %2) #18
  ret void
}